                        		TITLE	"8085 Cross-Assembler Test Source File"
                        		PAGE	60
8085 Cross-Assembler Test Source File

                        ;
                        ; The 8085 opcodes in opcode numerical order:
                        ;
   0012                 BYTE		EQU	012H
   0034                 WORD		EQU	034H
   0056                 PORT		EQU	056H
   7890                 ADDRESS		EQU	07890H
                        
                        ; 000H - 00FH.
                        
   0000   00            		NOP
   0001   01 34 00      		LXI	B, WORD
   0004   02            		STAX	B
   0005   03            		INX	B
   0006   04            		INR	B
   0007   05            		DCR	B
   0008   06 12         		MVI	B, BYTE
   000a   07            		RLC
                        					; 008H is undefined.
   000b   09            		DAD	B
   000c   0a            		LDAX	B
   000d   0b            		DCX	B
   000e   0c            		INR	C
   000f   0d            		DCR	C
   0010   0e 12         		MVI	C, BYTE
   0012   0f            		RRC
                        
                        ; 010H - 01FH.
                        
                        					; 010H is undefined.
   0013   11 34 00      		LXI	D, WORD
   0016   12            		STAX	D
   0017   13            		INX	D
   0018   14            		INR	D
   0019   15            		DCR	D
   001a   16 12         		MVI	D, BYTE
   001c   17            		RAL
                        					; 018H is undefined.
   001d   19            		DAD	D
   001e   1a            		LDAX	D
   001f   1b            		DCX	D
   0020   1c            		INR	E
   0021   1d            		DCR	E
   0022   1e 12         		MVI	E, BYTE
   0024   1f            		RAR
                        
                        ; 020H - 02FH.
                        
   0025   20            		RIM
   0026   21 34 00      		LXI	H, WORD
   0029   22 90 78      		SHLD	ADDRESS
   002c   23            		INX	H
   002d   24            		INR	H
   002e   25            		DCR	H
   002f   26 12         		MVI	H, BYTE
   0031   27            		DAA
                        					; 028H is undefined.
   0032   29            		DAD	H
8085 Cross-Assembler Test Source File

   0033   2a 90 78      		LHLD	ADDRESS
   0036   2b            		DCX	H
   0037   2c            		INR	L
   0038   2d            		DCR	L
   0039   2e 12         		MVI	L, BYTE
   003b   2f            		CMA
                        
                        ; 030H - 03FH.
                        
   003c   30            		SIM
   003d   31 34 00      		LXI	SP, WORD
   0040   32 90 78      		STA	ADDRESS
   0043   33            		INX	SP
   0044   34            		INR	M
   0045   35            		DCR	M
   0046   36 12         		MVI	M, BYTE
   0048   37            		STC
                        					; 038H is undefined.
   0049   39            		DAD	SP
   004a   3a 90 78      		LDA	ADDRESS
   004d   3b            		DCX	SP
   004e   3c            		INR	A
   004f   3d            		DCR	A
   0050   3e 12         		MVI	A, BYTE
   0052   3f            		CMC
                        
                        ; 040H - 04FH.
                        
   0053   40            		MOV	B, B
   0054   41            		MOV	B, C
   0055   42            		MOV	B, D
   0056   43            		MOV	B, E
   0057   44            		MOV	B, H
   0058   45            		MOV	B, L
   0059   46            		MOV	B, M
   005a   47            		MOV	B, A
   005b   48            		MOV	C, B
   005c   49            		MOV	C, C
   005d   4a            		MOV	C, D
   005e   4b            		MOV	C, E
   005f   4c            		MOV	C, H
   0060   4d            		MOV	C, L
   0061   4e            		MOV	C, M
   0062   4f            		MOV	C, A
                        
                        ; 050H - 05FH.
                        
   0063   50            		MOV	D, B
   0064   51            		MOV	D, C
   0065   52            		MOV	D, D
   0066   53            		MOV	D, E
   0067   54            		MOV	D, H
   0068   55            		MOV	D, L
   0069   56            		MOV	D, M
   006a   57            		MOV	D, A
   006b   58            		MOV	E, B
   006c   59            		MOV	E, C
   006d   5a            		MOV	E, D
8085 Cross-Assembler Test Source File

   006e   5b            		MOV	E, E
   006f   5c            		MOV	E, H
   0070   5d            		MOV	E, L
   0071   5e            		MOV	E, M
   0072   5f            		MOV	E, A
                        
                        ; 060H - 06FH.
                        
   0073   60            		MOV	H, B
   0074   61            		MOV	H, C
   0075   62            		MOV	H, D
   0076   63            		MOV	H, E
   0077   64            		MOV	H, H
   0078   65            		MOV	H, L
   0079   66            		MOV	H, M
   007a   67            		MOV	H, A
   007b   68            		MOV	L, B
   007c   69            		MOV	L, C
   007d   6a            		MOV	L, D
   007e   6b            		MOV	L, E
   007f   6c            		MOV	L, H
   0080   6d            		MOV	L, L
   0081   6e            		MOV	L, M
   0082   6f            		MOV	L, A
                        
                        ; 070H - 07FH.
                        
   0083   70            		MOV	M, B
   0084   71            		MOV	M, C
   0085   72            		MOV	M, D
   0086   73            		MOV	M, E
   0087   74            		MOV	M, H
   0088   75            		MOV	M, L
   0089   76            		HLT
   008a   77            		MOV	M, A
   008b   78            		MOV	A, B
   008c   79            		MOV	A, C
   008d   7a            		MOV	A, D
   008e   7b            		MOV	A, E
   008f   7c            		MOV	A, H
   0090   7d            		MOV	A, L
   0091   7e            		MOV	A, M
   0092   7f            		MOV	A, A
                        
                        ; 080H - 08FH.
                        
   0093   80            		ADD	B
   0094   81            		ADD	C
   0095   82            		ADD	D
   0096   83            		ADD	E
   0097   84            		ADD	H
   0098   85            		ADD	L
   0099   86            		ADD	M
   009a   87            		ADD	A
   009b   88            		ADC	B
   009c   89            		ADC	C
   009d   8a            		ADC	D
   009e   8b            		ADC	E
8085 Cross-Assembler Test Source File

   009f   8c            		ADC	H
   00a0   8d            		ADC	L
   00a1   8e            		ADC	M
   00a2   8f            		ADC	A
                        
                        ; 090H - 09FH.
                        
   00a3   90            		SUB	B
   00a4   91            		SUB	C
   00a5   92            		SUB	D
   00a6   93            		SUB	E
   00a7   94            		SUB	H
   00a8   95            		SUB	L
   00a9   96            		SUB	M
   00aa   97            		SUB	A
   00ab   98            		SBB	B
   00ac   99            		SBB	C
   00ad   9a            		SBB	D
   00ae   9b            		SBB	E
   00af   9c            		SBB	H
   00b0   9d            		SBB	L
   00b1   9e            		SBB	M
   00b2   9f            		SBB	A
                        
                        ; 0A0H - 0AFH.
                        
   00b3   a0            		ANA	B
   00b4   a1            		ANA	C
   00b5   a2            		ANA	D
   00b6   a3            		ANA	E
   00b7   a4            		ANA	H
   00b8   a5            		ANA	L
   00b9   a6            		ANA	M
   00ba   a7            		ANA	A
   00bb   a8            		XRA	B
   00bc   a9            		XRA	C
   00bd   aa            		XRA	D
   00be   ab            		XRA	E
   00bf   ac            		XRA	H
   00c0   ad            		XRA	L
   00c1   ae            		XRA	M
   00c2   af            		XRA	A
                        
                        ; 0B0H - 0BFH.
                        
   00c3   b0            		ORA	B
   00c4   b1            		ORA	C
   00c5   b2            		ORA	D
   00c6   b3            		ORA	E
   00c7   b4            		ORA	H
   00c8   b5            		ORA	L
   00c9   b6            		ORA	M
   00ca   b7            		ORA	A
   00cb   b8            		CMP	B
   00cc   b9            		CMP	C
   00cd   ba            		CMP	D
   00ce   bb            		CMP	E
   00cf   bc            		CMP	H
8085 Cross-Assembler Test Source File

   00d0   bd            		CMP	L
   00d1   be            		CMP	M
   00d2   bf            		CMP	A
                        
                        ; 0C0H - 0CFH.
                        
   00d3   c0            		RNZ
   00d4   c1            		POP	B
   00d5   c2 90 78      		JNZ	ADDRESS
   00d8   c3 90 78      		JMP	ADDRESS
   00db   c4 90 78      		CNZ	ADDRESS
   00de   c5            		PUSH	B
   00df   c6 12         		ADI	BYTE
   00e1   c7            		RST	0
   00e2   c8            		RZ
   00e3   c9            		RET
   00e4   ca 90 78      		JZ	ADDRESS
                        					; 0CBH is undefined.
   00e7   cc 90 78      		CZ	ADDRESS
   00ea   cd 90 78      		CALL	ADDRESS
   00ed   ce 12         		ACI	BYTE
   00ef   cf            		RST	1
                        
                        ; 0D0H - 0DFH.
                        
   00f0   d0            		RNC
   00f1   d1            		POP	D
   00f2   d2 90 78      		JNC	ADDRESS
   00f5   d3 56         		OUT	PORT
   00f7   d4 90 78      		CNC	ADDRESS
   00fa   d5            		PUSH	D
   00fb   d6 12         		SUI	BYTE
   00fd   d7            		RST	2
   00fe   d8            		RC
                        					; 0D9H is undefined.
   00ff   da 90 78      		JC	ADDRESS
   0102   db 56         		IN	PORT
   0104   dc 90 78      		CC	ADDRESS
                        					; 0DDH is undefined.
   0107   de 12         		SBI	BYTE
   0109   df            		RST	3
                        
                        ; 0E0H - 0EFH.
                        
   010a   e0            		RPO
   010b   e1            		POP	H
   010c   e2 90 78      		JPO	ADDRESS
   010f   e3            		XTHL
   0110   e4 90 78      		CPO	ADDRESS
   0113   e5            		PUSH	H
   0114   e6 12         		ANI	BYTE
   0116   e7            		RST	4
   0117   e8            		RPE
   0118   e9            		PCHL
   0119   ea 90 78      		JPE	ADDRESS
   011c   eb            		XCHG
   011d   ec 90 78      		CPE	ADDRESS
                        					; 0EDH is undefined.
8085 Cross-Assembler Test Source File

   0120   ee 12         		XRI	BYTE
   0122   ef            		RST	5
                        
                        ; 0F0H - 0FFH.
                        
   0123   f0            		RP
   0124   f1            		POP	PSW
   0125   f2 90 78      		JP	ADDRESS
   0128   f3            		DI
   0129   f4 90 78      		CP	ADDRESS
   012c   f5            		PUSH	PSW
   012d   f6 12         		ORI	BYTE
   012f   f7            		RST	6
   0130   f8            		RM
   0131   f9            		SPHL
   0132   fa 90 78      		JM	ADDRESS
   0135   fb            		EI
   0136   fc 90 78      		CM	ADDRESS
                        					; 0FDH is undefined.
   0139   fe 12         		CPI	BYTE
   013b   ff            		RST	7
                        
                        ;
                        ; Let's test the rest of the pseudo-ops while we're at it:
                        ;
   ffff                 VARIABLE	SET	-1
                        
   ffff                 		IF	VARIABLE
   013c   ff 00 01      		DB	-1, , +1
                        		ELSE
                        		DB	+1, , -1
                        		ENDIF
                        
   0000                 VARIABLE	SET	VARIABLE EQ 0
                        
   0000                 		IF	VARIABLE
                        		DW	, +1
                        		ELSE
   013f   00 00 ff ff   		DW	, -1
                        		ENDIF
                        
   0143                 		DS	10H
                        
   0153   45 58 50 4c   		DB	"EXPLOSION", 0DH, 0AH, 0
   0157   4f 53 49 4f   
   015b   4e 0d 0a 00   
                        
   015f                 		END
8085 Cross-Assembler Test Source File

7890  ADDRESS       0012  BYTE          0056  PORT          0000  VARIABLE  
0034  WORD          
